target datalayout = "e-m:e-p270:32:32-p271:32:32-p272:64:64-i64:64-i128:128-f80:128-n8:16:32:64-S128"
target triple = "x86_64-pc-linux-gnu"

%struct.jobacctinfo = type { i32, i64, i32, i64, i32, i32, %struct.acct_gather_energy, double, double, i32, i32, i32, ptr, ptr, ptr, ptr, ptr, ptr, ptr, ptr, ptr, ptr, ptr, ptr, ptr, ptr, ptr, ptr, %struct.jobacct_id_t, i32, double, double, i64, i64 }
%struct.acct_gather_energy = type { i32, i64, i64, i32, i64, i64, i64 }
%struct.jobacct_id_t = type { i32, i32, ptr }

@.str.8 = private unnamed_addr constant [17 x i8] c"jobacct_gather.c\00", align 1
@__func__._copy_tres_usage = private unnamed_addr constant [17 x i8] c"_copy_tres_usage\00", align 1

; Function Attrs: nounwind uwtable
define internal void @_copy_tres_usage(ptr noundef %0, ptr noundef %1) #0 {
  %3 = alloca ptr, align 8
  %4 = alloca ptr, align 8
  %5 = alloca i32, align 4
  store ptr %0, ptr %3, align 8
  store ptr %1, ptr %4, align 8
  call void @llvm.lifetime.start.p0(i64 4, ptr %5) #8
  store i32 0, ptr %5, align 4
  %6 = load ptr, ptr %3, align 8
  %7 = load ptr, ptr %6, align 8
  %8 = icmp ne ptr %7, null
  br i1 %8, label %12, label %9

9:                                                ; preds = %2
  %10 = call ptr @slurm_xcalloc(i64 noundef 1, i64 noundef 312, i1 noundef zeroext true, i1 noundef zeroext false, ptr noundef @.str.8, i32 noundef 238, ptr noundef @__func__._copy_tres_usage)
  %11 = load ptr, ptr %3, align 8
  store ptr %10, ptr %11, align 8
  br label %15

12:                                               ; preds = %2
  %13 = load ptr, ptr %3, align 8
  %14 = load ptr, ptr %13, align 8
  call void @_free_tres_usage(ptr noundef %14)
  br label %15

15:                                               ; preds = %12, %9
  %16 = load ptr, ptr %3, align 8
  %17 = load ptr, ptr %16, align 8
  %18 = load ptr, ptr %4, align 8
  call void @llvm.memcpy.p0.p0.i64(ptr align 8 %17, ptr align 8 %18, i64 312, i1 false)
  %19 = load ptr, ptr %3, align 8
  %20 = load ptr, ptr %19, align 8
  %21 = load ptr, ptr %4, align 8
  %22 = getelementptr inbounds nuw %struct.jobacctinfo, ptr %21, i32 0, i32 11
  %23 = load i32, ptr %22, align 8
  call void @_init_tres_usage(ptr noundef %20, ptr noundef null, i32 noundef %23)
  store i32 0, ptr %5, align 4
  br label %24

24:                                               ; preds = %227, %15
  %25 = load i32, ptr %5, align 4
  %26 = load ptr, ptr %4, align 8
  %27 = getelementptr inbounds nuw %struct.jobacctinfo, ptr %26, i32 0, i32 11
  %28 = load i32, ptr %27, align 8
  %29 = icmp ult i32 %25, %28
  br i1 %29, label %30, label %230

30:                                               ; preds = %24
  %31 = load ptr, ptr %4, align 8
  %32 = getelementptr inbounds nuw %struct.jobacctinfo, ptr %31, i32 0, i32 14
  %33 = load ptr, ptr %32, align 8
  %34 = load i32, ptr %5, align 4
  %35 = zext i32 %34 to i64
  %36 = getelementptr inbounds nuw i64, ptr %33, i64 %35
  %37 = load i64, ptr %36, align 8
  %38 = load ptr, ptr %3, align 8
  %39 = load ptr, ptr %38, align 8
  %40 = getelementptr inbounds nuw %struct.jobacctinfo, ptr %39, i32 0, i32 14
  %41 = load ptr, ptr %40, align 8
  %42 = load i32, ptr %5, align 4
  %43 = zext i32 %42 to i64
  %44 = getelementptr inbounds nuw i64, ptr %41, i64 %43
  store i64 %37, ptr %44, align 8
  %45 = load ptr, ptr %4, align 8
  %46 = getelementptr inbounds nuw %struct.jobacctinfo, ptr %45, i32 0, i32 15
  %47 = load ptr, ptr %46, align 8
  %48 = load i32, ptr %5, align 4
  %49 = zext i32 %48 to i64
  %50 = getelementptr inbounds nuw i64, ptr %47, i64 %49
  %51 = load i64, ptr %50, align 8
  %52 = load ptr, ptr %3, align 8
  %53 = load ptr, ptr %52, align 8
  %54 = getelementptr inbounds nuw %struct.jobacctinfo, ptr %53, i32 0, i32 15
  %55 = load ptr, ptr %54, align 8
  %56 = load i32, ptr %5, align 4
  %57 = zext i32 %56 to i64
  %58 = getelementptr inbounds nuw i64, ptr %55, i64 %57
  store i64 %51, ptr %58, align 8
  %59 = load ptr, ptr %4, align 8
  %60 = getelementptr inbounds nuw %struct.jobacctinfo, ptr %59, i32 0, i32 16
  %61 = load ptr, ptr %60, align 8
  %62 = load i32, ptr %5, align 4
  %63 = zext i32 %62 to i64
  %64 = getelementptr inbounds nuw i64, ptr %61, i64 %63
  %65 = load i64, ptr %64, align 8
  %66 = load ptr, ptr %3, align 8
  %67 = load ptr, ptr %66, align 8
  %68 = getelementptr inbounds nuw %struct.jobacctinfo, ptr %67, i32 0, i32 16
  %69 = load ptr, ptr %68, align 8
  %70 = load i32, ptr %5, align 4
  %71 = zext i32 %70 to i64
  %72 = getelementptr inbounds nuw i64, ptr %69, i64 %71
  store i64 %65, ptr %72, align 8
  %73 = load ptr, ptr %4, align 8
  %74 = getelementptr inbounds nuw %struct.jobacctinfo, ptr %73, i32 0, i32 17
  %75 = load ptr, ptr %74, align 8
  %76 = load i32, ptr %5, align 4
  %77 = zext i32 %76 to i64
  %78 = getelementptr inbounds nuw i64, ptr %75, i64 %77
  %79 = load i64, ptr %78, align 8
  %80 = load ptr, ptr %3, align 8
  %81 = load ptr, ptr %80, align 8
  %82 = getelementptr inbounds nuw %struct.jobacctinfo, ptr %81, i32 0, i32 17
  %83 = load ptr, ptr %82, align 8
  %84 = load i32, ptr %5, align 4
  %85 = zext i32 %84 to i64
  %86 = getelementptr inbounds nuw i64, ptr %83, i64 %85
  store i64 %79, ptr %86, align 8
  %87 = load ptr, ptr %4, align 8
  %88 = getelementptr inbounds nuw %struct.jobacctinfo, ptr %87, i32 0, i32 18
  %89 = load ptr, ptr %88, align 8
  %90 = load i32, ptr %5, align 4
  %91 = zext i32 %90 to i64
  %92 = getelementptr inbounds nuw i64, ptr %89, i64 %91
  %93 = load i64, ptr %92, align 8
  %94 = load ptr, ptr %3, align 8
  %95 = load ptr, ptr %94, align 8
  %96 = getelementptr inbounds nuw %struct.jobacctinfo, ptr %95, i32 0, i32 18
  %97 = load ptr, ptr %96, align 8
  %98 = load i32, ptr %5, align 4
  %99 = zext i32 %98 to i64
  %100 = getelementptr inbounds nuw i64, ptr %97, i64 %99
  store i64 %93, ptr %100, align 8
  %101 = load ptr, ptr %4, align 8
  %102 = getelementptr inbounds nuw %struct.jobacctinfo, ptr %101, i32 0, i32 19
  %103 = load ptr, ptr %102, align 8
  %104 = load i32, ptr %5, align 4
  %105 = zext i32 %104 to i64
  %106 = getelementptr inbounds nuw i64, ptr %103, i64 %105
  %107 = load i64, ptr %106, align 8
  %108 = load ptr, ptr %3, align 8
  %109 = load ptr, ptr %108, align 8
  %110 = getelementptr inbounds nuw %struct.jobacctinfo, ptr %109, i32 0, i32 19
  %111 = load ptr, ptr %110, align 8
  %112 = load i32, ptr %5, align 4
  %113 = zext i32 %112 to i64
  %114 = getelementptr inbounds nuw i64, ptr %111, i64 %113
  store i64 %107, ptr %114, align 8
  %115 = load ptr, ptr %4, align 8
  %116 = getelementptr inbounds nuw %struct.jobacctinfo, ptr %115, i32 0, i32 20
  %117 = load ptr, ptr %116, align 8
  %118 = load i32, ptr %5, align 4
  %119 = zext i32 %118 to i64
  %120 = getelementptr inbounds nuw i64, ptr %117, i64 %119
  %121 = load i64, ptr %120, align 8
  %122 = load ptr, ptr %3, align 8
  %123 = load ptr, ptr %122, align 8
  %124 = getelementptr inbounds nuw %struct.jobacctinfo, ptr %123, i32 0, i32 20
  %125 = load ptr, ptr %124, align 8
  %126 = load i32, ptr %5, align 4
  %127 = zext i32 %126 to i64
  %128 = getelementptr inbounds nuw i64, ptr %125, i64 %127
  store i64 %121, ptr %128, align 8
  %129 = load ptr, ptr %4, align 8
  %130 = getelementptr inbounds nuw %struct.jobacctinfo, ptr %129, i32 0, i32 21
  %131 = load ptr, ptr %130, align 8
  %132 = load i32, ptr %5, align 4
  %133 = zext i32 %132 to i64
  %134 = getelementptr inbounds nuw i64, ptr %131, i64 %133
  %135 = load i64, ptr %134, align 8
  %136 = load ptr, ptr %3, align 8
  %137 = load ptr, ptr %136, align 8
  %138 = getelementptr inbounds nuw %struct.jobacctinfo, ptr %137, i32 0, i32 21
  %139 = load ptr, ptr %138, align 8
  %140 = load i32, ptr %5, align 4
  %141 = zext i32 %140 to i64
  %142 = getelementptr inbounds nuw i64, ptr %139, i64 %141
  store i64 %135, ptr %142, align 8
  %143 = load ptr, ptr %4, align 8
  %144 = getelementptr inbounds nuw %struct.jobacctinfo, ptr %143, i32 0, i32 22
  %145 = load ptr, ptr %144, align 8
  %146 = load i32, ptr %5, align 4
  %147 = zext i32 %146 to i64
  %148 = getelementptr inbounds nuw i64, ptr %145, i64 %147
  %149 = load i64, ptr %148, align 8
  %150 = load ptr, ptr %3, align 8
  %151 = load ptr, ptr %150, align 8
  %152 = getelementptr inbounds nuw %struct.jobacctinfo, ptr %151, i32 0, i32 22
  %153 = load ptr, ptr %152, align 8
  %154 = load i32, ptr %5, align 4
  %155 = zext i32 %154 to i64
  %156 = getelementptr inbounds nuw i64, ptr %153, i64 %155
  store i64 %149, ptr %156, align 8
  %157 = load ptr, ptr %4, align 8
  %158 = getelementptr inbounds nuw %struct.jobacctinfo, ptr %157, i32 0, i32 23
  %159 = load ptr, ptr %158, align 8
  %160 = load i32, ptr %5, align 4
  %161 = zext i32 %160 to i64
  %162 = getelementptr inbounds nuw i64, ptr %159, i64 %161
  %163 = load i64, ptr %162, align 8
  %164 = load ptr, ptr %3, align 8
  %165 = load ptr, ptr %164, align 8
  %166 = getelementptr inbounds nuw %struct.jobacctinfo, ptr %165, i32 0, i32 23
  %167 = load ptr, ptr %166, align 8
  %168 = load i32, ptr %5, align 4
  %169 = zext i32 %168 to i64
  %170 = getelementptr inbounds nuw i64, ptr %167, i64 %169
  store i64 %163, ptr %170, align 8
  %171 = load ptr, ptr %4, align 8
  %172 = getelementptr inbounds nuw %struct.jobacctinfo, ptr %171, i32 0, i32 24
  %173 = load ptr, ptr %172, align 8
  %174 = load i32, ptr %5, align 4
  %175 = zext i32 %174 to i64
  %176 = getelementptr inbounds nuw i64, ptr %173, i64 %175
  %177 = load i64, ptr %176, align 8
  %178 = load ptr, ptr %3, align 8
  %179 = load ptr, ptr %178, align 8
  %180 = getelementptr inbounds nuw %struct.jobacctinfo, ptr %179, i32 0, i32 24
  %181 = load ptr, ptr %180, align 8
  %182 = load i32, ptr %5, align 4
  %183 = zext i32 %182 to i64
  %184 = getelementptr inbounds nuw i64, ptr %181, i64 %183
  store i64 %177, ptr %184, align 8
  %185 = load ptr, ptr %4, align 8
  %186 = getelementptr inbounds nuw %struct.jobacctinfo, ptr %185, i32 0, i32 25
  %187 = load ptr, ptr %186, align 8
  %188 = load i32, ptr %5, align 4
  %189 = zext i32 %188 to i64
  %190 = getelementptr inbounds nuw i64, ptr %187, i64 %189
  %191 = load i64, ptr %190, align 8
  %192 = load ptr, ptr %3, align 8
  %193 = load ptr, ptr %192, align 8
  %194 = getelementptr inbounds nuw %struct.jobacctinfo, ptr %193, i32 0, i32 25
  %195 = load ptr, ptr %194, align 8
  %196 = load i32, ptr %5, align 4
  %197 = zext i32 %196 to i64
  %198 = getelementptr inbounds nuw i64, ptr %195, i64 %197
  store i64 %191, ptr %198, align 8
  %199 = load ptr, ptr %4, align 8
  %200 = getelementptr inbounds nuw %struct.jobacctinfo, ptr %199, i32 0, i32 26
  %201 = load ptr, ptr %200, align 8
  %202 = load i32, ptr %5, align 4
  %203 = zext i32 %202 to i64
  %204 = getelementptr inbounds nuw i64, ptr %201, i64 %203
  %205 = load i64, ptr %204, align 8
  %206 = load ptr, ptr %3, align 8
  %207 = load ptr, ptr %206, align 8
  %208 = getelementptr inbounds nuw %struct.jobacctinfo, ptr %207, i32 0, i32 26
  %209 = load ptr, ptr %208, align 8
  %210 = load i32, ptr %5, align 4
  %211 = zext i32 %210 to i64
  %212 = getelementptr inbounds nuw i64, ptr %209, i64 %211
  store i64 %205, ptr %212, align 8
  %213 = load ptr, ptr %4, align 8
  %214 = getelementptr inbounds nuw %struct.jobacctinfo, ptr %213, i32 0, i32 27
  %215 = load ptr, ptr %214, align 8
  %216 = load i32, ptr %5, align 4
  %217 = zext i32 %216 to i64
  %218 = getelementptr inbounds nuw i64, ptr %215, i64 %217
  %219 = load i64, ptr %218, align 8
  %220 = load ptr, ptr %3, align 8
  %221 = load ptr, ptr %220, align 8
  %222 = getelementptr inbounds nuw %struct.jobacctinfo, ptr %221, i32 0, i32 27
  %223 = load ptr, ptr %222, align 8
  %224 = load i32, ptr %5, align 4
  %225 = zext i32 %224 to i64
  %226 = getelementptr inbounds nuw i64, ptr %223, i64 %225
  store i64 %219, ptr %226, align 8
  br label %227

227:                                              ; preds = %30
  %228 = load i32, ptr %5, align 4
  %229 = add i32 %228, 1
  store i32 %229, ptr %5, align 4
  br label %24, !llvm.loop !14

230:                                              ; preds = %24
  call void @llvm.lifetime.end.p0(i64 4, ptr %5) #8
  ret void
}