; Function Attrs: nounwind uwtable
define internal fastcc void @_copy_tres_usage(ptr noundef nonnull captures(none) %0, ptr noundef readonly captures(none) %1) unnamed_addr #0 {
  %3 = load ptr, ptr %0, align 8
  %.not = icmp eq ptr %3, null
  br i1 %.not, label %4, label %6

4:                                                ; preds = %2
  %5 = tail call ptr @slurm_xcalloc(i64 noundef 1, i64 noundef 312, i1 noundef zeroext true, i1 noundef zeroext false, ptr noundef nonnull @.str.8, i32 noundef 238, ptr noundef nonnull @__func__._copy_tres_usage) #10
  store ptr %5, ptr %0, align 8
  br label %7

6:                                                ; preds = %2
  tail call fastcc void @_free_tres_usage(ptr noundef nonnull %3)
  %.pre = load ptr, ptr %0, align 8
  br label %7

7:                                                ; preds = %6, %4
  %8 = phi ptr [ %.pre, %6 ], [ %5, %4 ]
  tail call void @llvm.memcpy.p0.p0.i64(ptr noundef nonnull align 8 dereferenceable(312) %8, ptr noundef nonnull align 8 dereferenceable(312) %1, i64 312, i1 false)
  %9 = load ptr, ptr %0, align 8
  %10 = getelementptr inbounds nuw i8, ptr %1, i64 120
  %11 = load i32, ptr %10, align 8
  tail call fastcc void @_init_tres_usage(ptr noundef %9, ptr noundef null, i32 noundef %11)
  %12 = load i32, ptr %10, align 8
  %.not67 = icmp eq i32 %12, 0
  br i1 %.not67, label %._crit_edge, label %.lr.ph

.lr.ph:                                           ; preds = %7
  %13 = getelementptr inbounds nuw i8, ptr %1, i64 144
  %14 = getelementptr inbounds nuw i8, ptr %1, i64 152
  %15 = getelementptr inbounds nuw i8, ptr %1, i64 160
  %16 = getelementptr inbounds nuw i8, ptr %1, i64 168
  %17 = getelementptr inbounds nuw i8, ptr %1, i64 176
  %18 = getelementptr inbounds nuw i8, ptr %1, i64 184
  %19 = getelementptr inbounds nuw i8, ptr %1, i64 192
  %20 = getelementptr inbounds nuw i8, ptr %1, i64 200
  %21 = getelementptr inbounds nuw i8, ptr %1, i64 208
  %22 = getelementptr inbounds nuw i8, ptr %1, i64 216
  %23 = getelementptr inbounds nuw i8, ptr %1, i64 224
  %24 = getelementptr inbounds nuw i8, ptr %1, i64 232
  %25 = getelementptr inbounds nuw i8, ptr %1, i64 240
  %26 = getelementptr inbounds nuw i8, ptr %1, i64 248
  br label %27

27:                                               ; preds = %.lr.ph, %27
  %indvars.iv = phi i64 [ 0, %.lr.ph ], [ %indvars.iv.next, %27 ]
  %28 = load ptr, ptr %13, align 8
  %29 = getelementptr inbounds nuw i64, ptr %28, i64 %indvars.iv
  %30 = load i64, ptr %29, align 8
  %31 = load ptr, ptr %0, align 8
  %32 = getelementptr inbounds nuw i8, ptr %31, i64 144
  %33 = load ptr, ptr %32, align 8
  %34 = getelementptr inbounds nuw i64, ptr %33, i64 %indvars.iv
  store i64 %30, ptr %34, align 8
  %35 = load ptr, ptr %14, align 8
  %36 = getelementptr inbounds nuw i64, ptr %35, i64 %indvars.iv
  %37 = load i64, ptr %36, align 8
  %38 = load ptr, ptr %0, align 8
  %39 = getelementptr inbounds nuw i8, ptr %38, i64 152
  %40 = load ptr, ptr %39, align 8
  %41 = getelementptr inbounds nuw i64, ptr %40, i64 %indvars.iv
  store i64 %37, ptr %41, align 8
  %42 = load ptr, ptr %15, align 8
  %43 = getelementptr inbounds nuw i64, ptr %42, i64 %indvars.iv
  %44 = load i64, ptr %43, align 8
  %45 = load ptr, ptr %0, align 8
  %46 = getelementptr inbounds nuw i8, ptr %45, i64 160
  %47 = load ptr, ptr %46, align 8
  %48 = getelementptr inbounds nuw i64, ptr %47, i64 %indvars.iv
  store i64 %44, ptr %48, align 8
  %49 = load ptr, ptr %16, align 8
  %50 = getelementptr inbounds nuw i64, ptr %49, i64 %indvars.iv
  %51 = load i64, ptr %50, align 8
  %52 = load ptr, ptr %0, align 8
  %53 = getelementptr inbounds nuw i8, ptr %52, i64 168
  %54 = load ptr, ptr %53, align 8
  %55 = getelementptr inbounds nuw i64, ptr %54, i64 %indvars.iv
  store i64 %51, ptr %55, align 8
  %56 = load ptr, ptr %17, align 8
  %57 = getelementptr inbounds nuw i64, ptr %56, i64 %indvars.iv
  %58 = load i64, ptr %57, align 8
  %59 = load ptr, ptr %0, align 8
  %60 = getelementptr inbounds nuw i8, ptr %59, i64 176
  %61 = load ptr, ptr %60, align 8
  %62 = getelementptr inbounds nuw i64, ptr %61, i64 %indvars.iv
  store i64 %58, ptr %62, align 8
  %63 = load ptr, ptr %18, align 8
  %64 = getelementptr inbounds nuw i64, ptr %63, i64 %indvars.iv
  %65 = load i64, ptr %64, align 8
  %66 = load ptr, ptr %0, align 8
  %67 = getelementptr inbounds nuw i8, ptr %66, i64 184
  %68 = load ptr, ptr %67, align 8
  %69 = getelementptr inbounds nuw i64, ptr %68, i64 %indvars.iv
  store i64 %65, ptr %69, align 8
  %70 = load ptr, ptr %19, align 8
  %71 = getelementptr inbounds nuw i64, ptr %70, i64 %indvars.iv
  %72 = load i64, ptr %71, align 8
  %73 = load ptr, ptr %0, align 8
  %74 = getelementptr inbounds nuw i8, ptr %73, i64 192
  %75 = load ptr, ptr %74, align 8
  %76 = getelementptr inbounds nuw i64, ptr %75, i64 %indvars.iv
  store i64 %72, ptr %76, align 8
  %77 = load ptr, ptr %20, align 8
  %78 = getelementptr inbounds nuw i64, ptr %77, i64 %indvars.iv
  %79 = load i64, ptr %78, align 8
  %80 = load ptr, ptr %0, align 8
  %81 = getelementptr inbounds nuw i8, ptr %80, i64 200
  %82 = load ptr, ptr %81, align 8
  %83 = getelementptr inbounds nuw i64, ptr %82, i64 %indvars.iv
  store i64 %79, ptr %83, align 8
  %84 = load ptr, ptr %21, align 8
  %85 = getelementptr inbounds nuw i64, ptr %84, i64 %indvars.iv
  %86 = load i64, ptr %85, align 8
  %87 = load ptr, ptr %0, align 8
  %88 = getelementptr inbounds nuw i8, ptr %87, i64 208
  %89 = load ptr, ptr %88, align 8
  %90 = getelementptr inbounds nuw i64, ptr %89, i64 %indvars.iv
  store i64 %86, ptr %90, align 8
  %91 = load ptr, ptr %22, align 8
  %92 = getelementptr inbounds nuw i64, ptr %91, i64 %indvars.iv
  %93 = load i64, ptr %92, align 8
  %94 = load ptr, ptr %0, align 8
  %95 = getelementptr inbounds nuw i8, ptr %94, i64 216
  %96 = load ptr, ptr %95, align 8
  %97 = getelementptr inbounds nuw i64, ptr %96, i64 %indvars.iv
  store i64 %93, ptr %97, align 8
  %98 = load ptr, ptr %23, align 8
  %99 = getelementptr inbounds nuw i64, ptr %98, i64 %indvars.iv
  %100 = load i64, ptr %99, align 8
  %101 = load ptr, ptr %0, align 8
  %102 = getelementptr inbounds nuw i8, ptr %101, i64 224
  %103 = load ptr, ptr %102, align 8
  %104 = getelementptr inbounds nuw i64, ptr %103, i64 %indvars.iv
  store i64 %100, ptr %104, align 8
  %105 = load ptr, ptr %24, align 8
  %106 = getelementptr inbounds nuw i64, ptr %105, i64 %indvars.iv
  %107 = load i64, ptr %106, align 8
  %108 = load ptr, ptr %0, align 8
  %109 = getelementptr inbounds nuw i8, ptr %108, i64 232
  %110 = load ptr, ptr %109, align 8
  %111 = getelementptr inbounds nuw i64, ptr %110, i64 %indvars.iv
  store i64 %107, ptr %111, align 8
  %112 = load ptr, ptr %25, align 8
  %113 = getelementptr inbounds nuw i64, ptr %112, i64 %indvars.iv
  %114 = load i64, ptr %113, align 8
  %115 = load ptr, ptr %0, align 8
  %116 = getelementptr inbounds nuw i8, ptr %115, i64 240
  %117 = load ptr, ptr %116, align 8
  %118 = getelementptr inbounds nuw i64, ptr %117, i64 %indvars.iv
  store i64 %114, ptr %118, align 8
  %119 = load ptr, ptr %26, align 8
  %120 = getelementptr inbounds nuw i64, ptr %119, i64 %indvars.iv
  %121 = load i64, ptr %120, align 8
  %122 = load ptr, ptr %0, align 8
  %123 = getelementptr inbounds nuw i8, ptr %122, i64 248
  %124 = load ptr, ptr %123, align 8
  %125 = getelementptr inbounds nuw i64, ptr %124, i64 %indvars.iv
  store i64 %121, ptr %125, align 8
  %indvars.iv.next = add nuw nsw i64 %indvars.iv, 1
  %126 = load i32, ptr %10, align 8
  %127 = zext i32 %126 to i64
  %128 = icmp samesign ult i64 %indvars.iv.next, %127
  br i1 %128, label %27, label %._crit_edge, !llvm.loop !12

._crit_edge:                                      ; preds = %27, %7
  ret void
}